	.text
	.file	"loop.c"
	.file	1 "/usr/include" "stdlib.h"
	.file	2 "/usr/include" "time.h"
	.file	3 "/usr/include/x86_64-linux-gnu/bits" "types.h"
	.file	4 "/usr/include/x86_64-linux-gnu/bits/types" "struct_timespec.h"
	.section	.rodata.cst8,"aM",@progbits,8
	.p2align	3               # -- Begin function main
.LCPI0_0:
	.quad	4472406533629990549     # double 1.0000000000000001E-9
	.text
	.globl	main
	.p2align	4, 0x90
	.type	main,@function
main:                                   # @main
.Lfunc_begin0:
	.file	5 "/workspace/src/github/joeshow79/pess/MIT6_172F18_hw3/homework3" "loop.c"
	.loc	5 50 0                  # loop.c:50:0
	.cfi_startproc
# %bb.0:                                # %entry
	#DEBUG_VALUE: main:argc <- $edi
	#DEBUG_VALUE: main:argv <- $rsi
	pushq	%rbp
	.cfi_def_cfa_offset 16
	pushq	%r15
	.cfi_def_cfa_offset 24
	pushq	%r14
	.cfi_def_cfa_offset 32
	pushq	%rbx
	.cfi_def_cfa_offset 40
	subq	$12328, %rsp            # imm = 0x3028
	.cfi_def_cfa_offset 12368
	.cfi_offset %rbx, -40
	.cfi_offset %r14, -32
	.cfi_offset %r15, -24
	.cfi_offset %rbp, -16
.Ltmp0:
	#DEBUG_VALUE: main:total <- 0
	#DEBUG_VALUE: main:seed <- 0
	.loc	5 59 18 prologue_end    # loop.c:59:18
	movl	$0, 12(%rsp)
.Ltmp1:
	#DEBUG_VALUE: main:j <- 0
	.loc	5 0 18 is_stmt 0        # loop.c:0:18
	leaq	8224(%rsp), %rdi
.Ltmp2:
	xorl	%ebp, %ebp
.Ltmp3:
	.loc	5 65 14 is_stmt 1       # loop.c:65:14
	movl	$4096, %edx             # imm = 0x1000
	xorl	%esi, %esi
.Ltmp4:
	callq	memset
.Ltmp5:
	.loc	5 0 14 is_stmt 0        # loop.c:0:14
	leaq	4128(%rsp), %rdi
	.loc	5 66 14 is_stmt 1       # loop.c:66:14
	movl	$4096, %edx             # imm = 0x1000
	xorl	%esi, %esi
	callq	memset
.Ltmp6:
	.loc	5 0 14 is_stmt 0        # loop.c:0:14
	leaq	32(%rsp), %rdi
	.loc	5 67 14 is_stmt 1       # loop.c:67:14
	movl	$4096, %edx             # imm = 0x1000
	xorl	%esi, %esi
	callq	memset
.Ltmp7:
	#DEBUG_VALUE: main:j <- undef
	.loc	5 0 14 is_stmt 0        # loop.c:0:14
	leaq	16(%rsp), %rsi
.Ltmp8:
	.file	6 "/workspace/src/github/joeshow79/pess/MIT6_172F18_hw3/homework3" "././fasttime.h"
	.loc	6 72 3 is_stmt 1        # ././fasttime.h:72:3
	movl	$1, %edi
	callq	clock_gettime
.Ltmp9:
	.loc	6 77 3                  # ././fasttime.h:77:3
	movq	16(%rsp), %r15
	movq	24(%rsp), %r14
.Ltmp10:
	#DEBUG_VALUE: main:time1 <- [DW_OP_LLVM_fragment 0 64] $r15
	#DEBUG_VALUE: main:time1 <- [DW_OP_LLVM_fragment 64 64] $r14
	#DEBUG_VALUE: main:i <- 0
	.p2align	4, 0x90
.LBB0_1:                                # %for.cond8.preheader
                                        # =>This Loop Header: Depth=1
                                        #     Child Loop BB0_2 Depth 2
	#DEBUG_VALUE: main:time1 <- [DW_OP_LLVM_fragment 64 64] $r14
	#DEBUG_VALUE: main:time1 <- [DW_OP_LLVM_fragment 0 64] $r15
	#DEBUG_VALUE: main:j <- 0
	#DEBUG_VALUE: main:seed <- 0
	#DEBUG_VALUE: main:total <- 0
	.loc	6 0 3 is_stmt 0         # ././fasttime.h:0:3
	movq	$-8, %rax
.Ltmp11:
	#DEBUG_VALUE: main:i <- $ebp
	#DEBUG_VALUE: main:j <- 0
	.p2align	4, 0x90
.LBB0_2:                                # %for.body10
                                        #   Parent Loop BB0_1 Depth=1
                                        # =>  This Inner Loop Header: Depth=2
	#DEBUG_VALUE: main:i <- $ebp
	#DEBUG_VALUE: main:time1 <- [DW_OP_LLVM_fragment 64 64] $r14
	#DEBUG_VALUE: main:time1 <- [DW_OP_LLVM_fragment 0 64] $r15
	#DEBUG_VALUE: main:j <- 0
	#DEBUG_VALUE: main:seed <- 0
	#DEBUG_VALUE: main:total <- 0
	#DEBUG_VALUE: main:j <- undef
	.loc	5 76 32 is_stmt 1       # loop.c:76:32
	movl	4160(%rsp,%rax,4), %ecx
	movl	4168(%rsp,%rax,4), %edx
	.loc	5 76 25 is_stmt 0       # loop.c:76:25
	addl	8256(%rsp,%rax,4), %ecx
	addl	8264(%rsp,%rax,4), %edx
	.loc	5 76 18                 # loop.c:76:18
	movl	%ecx, 64(%rsp,%rax,4)
	.loc	5 76 32                 # loop.c:76:32
	movl	4176(%rsp,%rax,4), %ecx
	.loc	5 76 25                 # loop.c:76:25
	addl	8272(%rsp,%rax,4), %ecx
	.loc	5 76 18                 # loop.c:76:18
	movl	%edx, 72(%rsp,%rax,4)
	.loc	5 76 32                 # loop.c:76:32
	movl	4184(%rsp,%rax,4), %edx
	.loc	5 76 25                 # loop.c:76:25
	addl	8280(%rsp,%rax,4), %edx
	.loc	5 76 18                 # loop.c:76:18
	movl	%ecx, 80(%rsp,%rax,4)
	movl	%edx, 88(%rsp,%rax,4)
.Ltmp12:
	#DEBUG_VALUE: main:j <- [DW_OP_plus_uconst 8, DW_OP_stack_value] undef
	.loc	5 75 23 is_stmt 1       # loop.c:75:23
	addq	$8, %rax
	cmpq	$1016, %rax             # imm = 0x3F8
.Ltmp13:
	.loc	5 75 9 is_stmt 0        # loop.c:75:9
	jb	.LBB0_2
.Ltmp14:
# %bb.3:                                # %for.inc20
                                        #   in Loop: Header=BB0_1 Depth=1
	#DEBUG_VALUE: main:i <- $ebp
	#DEBUG_VALUE: main:time1 <- [DW_OP_LLVM_fragment 64 64] $r14
	#DEBUG_VALUE: main:time1 <- [DW_OP_LLVM_fragment 0 64] $r15
	#DEBUG_VALUE: main:j <- 0
	#DEBUG_VALUE: main:seed <- 0
	#DEBUG_VALUE: main:total <- 0
	.loc	5 72 25 is_stmt 1       # loop.c:72:25
	addl	$1, %ebp
.Ltmp15:
	#DEBUG_VALUE: main:i <- $ebp
	.loc	5 72 19 is_stmt 0       # loop.c:72:19
	cmpl	$100000, %ebp           # imm = 0x186A0
.Ltmp16:
	.loc	5 72 5                  # loop.c:72:5
	jne	.LBB0_1
.Ltmp17:
# %bb.4:                                # %for.end22
	#DEBUG_VALUE: main:i <- $ebp
	#DEBUG_VALUE: main:time1 <- [DW_OP_LLVM_fragment 64 64] $r14
	#DEBUG_VALUE: main:time1 <- [DW_OP_LLVM_fragment 0 64] $r15
	#DEBUG_VALUE: main:j <- 0
	#DEBUG_VALUE: main:seed <- 0
	#DEBUG_VALUE: main:total <- 0
	.loc	5 0 5                   # loop.c:0:5
	leaq	16(%rsp), %rsi
.Ltmp18:
	.loc	6 72 3                  # ././fasttime.h:72:3
	movl	$1, %edi
	callq	clock_gettime
.Ltmp19:
	.loc	6 77 3 is_stmt 1        # ././fasttime.h:77:3
	movq	16(%rsp), %rbp
.Ltmp20:
	movq	24(%rsp), %rbx
.Ltmp21:
	#DEBUG_VALUE: main:time2 <- [DW_OP_LLVM_fragment 0 64] $rbp
	#DEBUG_VALUE: main:time2 <- [DW_OP_LLVM_fragment 64 64] $rbx
	#DEBUG_VALUE: main:seed <- [DW_OP_plus_uconst 12, DW_OP_deref] $rsp
	.loc	6 0 3 is_stmt 0         # ././fasttime.h:0:3
	leaq	12(%rsp), %rdi
.Ltmp22:
	.loc	5 84 16 is_stmt 1       # loop.c:84:16
	callq	rand_r
.Ltmp23:
                                        # kill: def $eax killed $eax def $rax
	.loc	5 84 30 is_stmt 0       # loop.c:84:30
	leal	1023(%rax), %ecx
	testl	%eax, %eax
	cmovnsl	%eax, %ecx
	andl	$-1024, %ecx            # imm = 0xFC00
	subl	%ecx, %eax
.Ltmp24:
	.loc	6 83 21 is_stmt 1       # ././fasttime.h:83:21
	subq	%r15, %rbp
.Ltmp25:
	.loc	6 83 10 is_stmt 0       # ././fasttime.h:83:10
	vcvtsi2sd	%rbp, %xmm0, %xmm0
.Ltmp26:
	.loc	5 84 14 is_stmt 1       # loop.c:84:14
	cltq
.Ltmp27:
	.loc	6 83 56                 # ././fasttime.h:83:56
	subq	%r14, %rbx
.Ltmp28:
	.loc	6 83 43 is_stmt 0       # ././fasttime.h:83:43
	vcvtsi2sd	%rbx, %xmm1, %xmm1
.Ltmp29:
	.loc	5 84 14 is_stmt 1       # loop.c:84:14
	movl	32(%rsp,%rax,4), %ebx
.Ltmp30:
	#DEBUG_VALUE: tdiff:end <- [DW_OP_LLVM_fragment 0 64] undef
	#DEBUG_VALUE: tdiff:end <- [DW_OP_LLVM_fragment 64 64] undef
	#DEBUG_VALUE: tdiff:start <- [DW_OP_LLVM_fragment 64 64] undef
	#DEBUG_VALUE: tdiff:start <- [DW_OP_LLVM_fragment 0 64] undef
	#DEBUG_VALUE: main:total <- $ebx
	.loc	6 83 42                 # ././fasttime.h:83:42
	vmulsd	.LCPI0_0(%rip), %xmm1, %xmm1
	.loc	6 83 36 is_stmt 0       # ././fasttime.h:83:36
	vaddsd	%xmm0, %xmm1, %xmm0
.Ltmp31:
	#DEBUG_VALUE: main:elapsedf <- $xmm0
	.loc	5 89 5 is_stmt 1        # loop.c:89:5
	movl	$.L.str, %edi
	movl	$.L.str.1, %ecx
	movl	$.L.str.2, %r8d
	movl	$1024, %esi             # imm = 0x400
	movl	$100000, %edx           # imm = 0x186A0
	movb	$1, %al
	callq	printf
.Ltmp32:
	.loc	5 93 5                  # loop.c:93:5
	movl	%ebx, %eax
	addq	$12328, %rsp            # imm = 0x3028
	.cfi_def_cfa_offset 40
	popq	%rbx
.Ltmp33:
	.cfi_def_cfa_offset 32
	popq	%r14
.Ltmp34:
	.cfi_def_cfa_offset 24
	popq	%r15
.Ltmp35:
	.cfi_def_cfa_offset 16
	popq	%rbp
	.cfi_def_cfa_offset 8
	retq
.Ltmp36:
.Lfunc_end0:
	.size	main, .Lfunc_end0-main
	.cfi_endproc
                                        # -- End function
	.type	.L.str,@object          # @.str
	.section	.rodata.str1.1,"aMS",@progbits,1
.L.str:
	.asciz	"Elapsed execution time: %f sec; N: %d, I: %d, __OP__: %s, __TYPE__: %s\n"
	.size	.L.str, 72

	.type	.L.str.1,@object        # @.str.1
.L.str.1:
	.asciz	"+"
	.size	.L.str.1, 2

	.type	.L.str.2,@object        # @.str.2
.L.str.2:
	.asciz	"uint32_t"
	.size	.L.str.2, 9

	.file	7 "/usr/include/x86_64-linux-gnu/bits" "stdint-uintn.h"
	.section	".note.GNU-stack","",@progbits
	.addrsig